target datalayout = "e-m:e-p270:32:32-p271:32:32-p272:64:64-i64:64-i128:128-f80:128-n8:16:32:64-S128"
target triple = "x86_64-pc-linux-gnu"

@hf_nfs4_length = internal global i32 0, align 4
@.str.2461 = private unnamed_addr constant [7 x i8] c" = %lu\00", align 1

; Function Attrs: null_pointer_is_valid sspstrong uwtable
define internal i32 @dissect_nfs4_threshold_item_file(ptr noundef %0, i32 noundef %1, ptr noundef %2, ptr noundef %3, ptr noundef %4, ptr noundef %5, i32 noundef %6, ptr noundef %7) #0 {
  %9 = alloca ptr, align 8
  %10 = alloca i32, align 4
  %11 = alloca ptr, align 8
  %12 = alloca ptr, align 8
  %13 = alloca ptr, align 8
  %14 = alloca ptr, align 8
  %15 = alloca i32, align 4
  %16 = alloca ptr, align 8
  %17 = alloca i64, align 8
  store ptr %0, ptr %9, align 8
  store i32 %1, ptr %10, align 4
  store ptr %2, ptr %11, align 8
  store ptr %3, ptr %12, align 8
  store ptr %4, ptr %13, align 8
  store ptr %5, ptr %14, align 8
  store i32 %6, ptr %15, align 4
  store ptr %7, ptr %16, align 8
  call void @llvm.lifetime.start.p0(i64 8, ptr %17) #16
  %18 = load i32, ptr %15, align 4
  switch i32 %18, label %30 [
    i32 0, label %19
    i32 1, label %19
    i32 2, label %19
    i32 3, label %19
  ]

19:                                               ; preds = %8, %8, %8, %8
  %20 = load ptr, ptr %9, align 8
  %21 = load i32, ptr %10, align 4
  %22 = call i64 @tvb_get_ntoh64(ptr noundef %20, i32 noundef %21)
  store i64 %22, ptr %17, align 8
  %23 = load ptr, ptr %9, align 8
  %24 = load ptr, ptr %13, align 8
  %25 = load i32, ptr @hf_nfs4_length, align 4
  %26 = load i32, ptr %10, align 4
  %27 = call i32 @dissect_rpc_uint64(ptr noundef %23, ptr noundef %24, i32 noundef %25, i32 noundef %26)
  store i32 %27, ptr %10, align 4
  %28 = load ptr, ptr %13, align 8
  %29 = load i64, ptr %17, align 8
  call void (ptr, ptr, ...) @proto_item_append_text(ptr noundef %28, ptr noundef @.str.2461, i64 noundef %29)
  br label %30

30:                                               ; preds = %8, %19
  %31 = load i32, ptr %10, align 4
  call void @llvm.lifetime.end.p0(i64 8, ptr %17) #16
  ret i32 %31
}