; Function Attrs: null_pointer_is_valid sspstrong uwtable
define internal i32 @dissect_nfs4_threshold_item_file(ptr noundef %0, i32 noundef %1, ptr readnone captures(none) %2, ptr readnone captures(none) %3, ptr noundef %4, ptr readnone captures(none) %5, i32 noundef %6, ptr readnone captures(none) %7) #0 {
  %switch = icmp ult i32 %6, 4
  br i1 %switch, label %9, label %13

9:                                                ; preds = %8
  %10 = tail call i64 @tvb_get_ntoh64(ptr noundef %0, i32 noundef %1)
  %11 = load i32, ptr @hf_nfs4_length, align 4
  %12 = tail call i32 @dissect_rpc_uint64(ptr noundef %0, ptr noundef %4, i32 noundef %11, i32 noundef %1)
  tail call void (ptr, ptr, ...) @proto_item_append_text(ptr noundef %4, ptr noundef nonnull @.str.2461, i64 noundef %10)
  br label %13

13:                                               ; preds = %8, %9
  %.0 = phi i32 [ %1, %8 ], [ %12, %9 ]
  ret i32 %.0
}